; Function Attrs: null_pointer_is_valid sspstrong uwtable
define internal void @update_dynamic_array_hf_entry(ptr readnone captures(none) %0, ptr noundef captures(none) %1, ptr noundef captures(none) %2) #0 {
  %4 = load i32, ptr %2, align 4
  %5 = load i32, ptr @dynamic_hf_array_size, align 4
  %.not = icmp ult i32 %4, %5
  br i1 %.not, label %6, label %21

6:                                                ; preds = %3
  %7 = load ptr, ptr @dynamic_hf_array, align 8
  %8 = getelementptr inbounds nuw i8, ptr %1, i64 16
  %9 = load i32, ptr %8, align 8
  %10 = getelementptr inbounds nuw i8, ptr %1, i64 20
  %11 = load i32, ptr %10, align 4
  %12 = getelementptr inbounds nuw i8, ptr %1, i64 8
  %13 = load ptr, ptr %12, align 8
  %14 = getelementptr inbounds nuw i8, ptr %1, i64 40
  %15 = load ptr, ptr %14, align 8
  %16 = tail call fastcc ptr @update_dynamic_hf_entry(ptr noundef %7, i32 noundef %4, i32 noundef %9, i32 noundef %11, ptr noundef %13, ptr noundef %15)
  %17 = getelementptr inbounds nuw i8, ptr %1, i64 32
  store ptr %16, ptr %17, align 8
  %.not11 = icmp eq ptr %16, null
  br i1 %.not11, label %21, label %18

18:                                               ; preds = %6
  %19 = load i32, ptr %2, align 4
  %20 = add i32 %19, 1
  store i32 %20, ptr %2, align 4
  br label %21

21:                                               ; preds = %6, %18, %3
  ret void
}